target datalayout = "e-m:e-p270:32:32-p271:32:32-p272:64:64-i64:64-i128:128-f80:128-n8:16:32:64-S128"
target triple = "x86_64-pc-linux-gnu"

%struct.H5O_shared_t = type { i32, ptr, i32, %union.anon }
%union.anon = type { %struct.H5O_mesg_loc_t }
%struct.H5O_mesg_loc_t = type { i32, i64 }
%struct.H5O_pline_t = type { %struct.H5O_shared_t, i32, i64, i64, ptr }
%struct.H5Z_filter_info_t = type { i32, i32, [12 x i8], ptr, i64, [4 x i32], ptr }

; Function Attrs: nounwind uwtable
define internal i32 @H5O__pline_reset(ptr noundef %0) #0 {
  %2 = alloca ptr, align 8
  %3 = alloca ptr, align 8
  %4 = alloca i64, align 8
  store ptr %0, ptr %2, align 8
  %5 = load ptr, ptr %2, align 8
  store ptr %5, ptr %3, align 8
  %6 = load ptr, ptr %3, align 8
  %7 = getelementptr inbounds %struct.H5O_pline_t, ptr %6, i32 0, i32 4
  %8 = load ptr, ptr %7, align 8
  %9 = icmp ne ptr %8, null
  br i1 %9, label %10, label %142

10:                                               ; preds = %1
  store i64 0, ptr %4, align 8
  br label %11

11:                                               ; preds = %132, %10
  %12 = load i64, ptr %4, align 8
  %13 = load ptr, ptr %3, align 8
  %14 = getelementptr inbounds %struct.H5O_pline_t, ptr %13, i32 0, i32 3
  %15 = load i64, ptr %14, align 8
  %16 = icmp ult i64 %12, %15
  br i1 %16, label %17, label %135

17:                                               ; preds = %11
  %18 = load ptr, ptr %3, align 8
  %19 = getelementptr inbounds %struct.H5O_pline_t, ptr %18, i32 0, i32 4
  %20 = load ptr, ptr %19, align 8
  %21 = load i64, ptr %4, align 8
  %22 = getelementptr inbounds %struct.H5Z_filter_info_t, ptr %20, i64 %21
  %23 = getelementptr inbounds %struct.H5Z_filter_info_t, ptr %22, i32 0, i32 3
  %24 = load ptr, ptr %23, align 8
  %25 = icmp ne ptr %24, null
  br i1 %25, label %26, label %43

26:                                               ; preds = %17
  %27 = load ptr, ptr %3, align 8
  %28 = getelementptr inbounds %struct.H5O_pline_t, ptr %27, i32 0, i32 4
  %29 = load ptr, ptr %28, align 8
  %30 = load i64, ptr %4, align 8
  %31 = getelementptr inbounds %struct.H5Z_filter_info_t, ptr %29, i64 %30
  %32 = getelementptr inbounds %struct.H5Z_filter_info_t, ptr %31, i32 0, i32 3
  %33 = load ptr, ptr %32, align 8
  %34 = load ptr, ptr %3, align 8
  %35 = getelementptr inbounds %struct.H5O_pline_t, ptr %34, i32 0, i32 4
  %36 = load ptr, ptr %35, align 8
  %37 = load i64, ptr %4, align 8
  %38 = getelementptr inbounds %struct.H5Z_filter_info_t, ptr %36, i64 %37
  %39 = getelementptr inbounds %struct.H5Z_filter_info_t, ptr %38, i32 0, i32 2
  %40 = getelementptr inbounds [12 x i8], ptr %39, i64 0, i64 0
  %41 = icmp ne ptr %33, %40
  br i1 %41, label %42, label %43

42:                                               ; preds = %26
  br label %43

43:                                               ; preds = %42, %26, %17
  %44 = load ptr, ptr %3, align 8
  %45 = getelementptr inbounds %struct.H5O_pline_t, ptr %44, i32 0, i32 4
  %46 = load ptr, ptr %45, align 8
  %47 = load i64, ptr %4, align 8
  %48 = getelementptr inbounds %struct.H5Z_filter_info_t, ptr %46, i64 %47
  %49 = getelementptr inbounds %struct.H5Z_filter_info_t, ptr %48, i32 0, i32 3
  %50 = load ptr, ptr %49, align 8
  %51 = load ptr, ptr %3, align 8
  %52 = getelementptr inbounds %struct.H5O_pline_t, ptr %51, i32 0, i32 4
  %53 = load ptr, ptr %52, align 8
  %54 = load i64, ptr %4, align 8
  %55 = getelementptr inbounds %struct.H5Z_filter_info_t, ptr %53, i64 %54
  %56 = getelementptr inbounds %struct.H5Z_filter_info_t, ptr %55, i32 0, i32 2
  %57 = getelementptr inbounds [12 x i8], ptr %56, i64 0, i64 0
  %58 = icmp ne ptr %50, %57
  br i1 %58, label %59, label %74

59:                                               ; preds = %43
  %60 = load ptr, ptr %3, align 8
  %61 = getelementptr inbounds %struct.H5O_pline_t, ptr %60, i32 0, i32 4
  %62 = load ptr, ptr %61, align 8
  %63 = load i64, ptr %4, align 8
  %64 = getelementptr inbounds %struct.H5Z_filter_info_t, ptr %62, i64 %63
  %65 = getelementptr inbounds %struct.H5Z_filter_info_t, ptr %64, i32 0, i32 3
  %66 = load ptr, ptr %65, align 8
  %67 = call ptr @H5MM_xfree(ptr noundef %66)
  %68 = load ptr, ptr %3, align 8
  %69 = getelementptr inbounds %struct.H5O_pline_t, ptr %68, i32 0, i32 4
  %70 = load ptr, ptr %69, align 8
  %71 = load i64, ptr %4, align 8
  %72 = getelementptr inbounds %struct.H5Z_filter_info_t, ptr %70, i64 %71
  %73 = getelementptr inbounds %struct.H5Z_filter_info_t, ptr %72, i32 0, i32 3
  store ptr %67, ptr %73, align 8
  br label %74

74:                                               ; preds = %59, %43
  %75 = load ptr, ptr %3, align 8
  %76 = getelementptr inbounds %struct.H5O_pline_t, ptr %75, i32 0, i32 4
  %77 = load ptr, ptr %76, align 8
  %78 = load i64, ptr %4, align 8
  %79 = getelementptr inbounds %struct.H5Z_filter_info_t, ptr %77, i64 %78
  %80 = getelementptr inbounds %struct.H5Z_filter_info_t, ptr %79, i32 0, i32 6
  %81 = load ptr, ptr %80, align 8
  %82 = icmp ne ptr %81, null
  br i1 %82, label %83, label %100

83:                                               ; preds = %74
  %84 = load ptr, ptr %3, align 8
  %85 = getelementptr inbounds %struct.H5O_pline_t, ptr %84, i32 0, i32 4
  %86 = load ptr, ptr %85, align 8
  %87 = load i64, ptr %4, align 8
  %88 = getelementptr inbounds %struct.H5Z_filter_info_t, ptr %86, i64 %87
  %89 = getelementptr inbounds %struct.H5Z_filter_info_t, ptr %88, i32 0, i32 6
  %90 = load ptr, ptr %89, align 8
  %91 = load ptr, ptr %3, align 8
  %92 = getelementptr inbounds %struct.H5O_pline_t, ptr %91, i32 0, i32 4
  %93 = load ptr, ptr %92, align 8
  %94 = load i64, ptr %4, align 8
  %95 = getelementptr inbounds %struct.H5Z_filter_info_t, ptr %93, i64 %94
  %96 = getelementptr inbounds %struct.H5Z_filter_info_t, ptr %95, i32 0, i32 5
  %97 = getelementptr inbounds [4 x i32], ptr %96, i64 0, i64 0
  %98 = icmp ne ptr %90, %97
  br i1 %98, label %99, label %100

99:                                               ; preds = %83
  br label %100

100:                                              ; preds = %99, %83, %74
  %101 = load ptr, ptr %3, align 8
  %102 = getelementptr inbounds %struct.H5O_pline_t, ptr %101, i32 0, i32 4
  %103 = load ptr, ptr %102, align 8
  %104 = load i64, ptr %4, align 8
  %105 = getelementptr inbounds %struct.H5Z_filter_info_t, ptr %103, i64 %104
  %106 = getelementptr inbounds %struct.H5Z_filter_info_t, ptr %105, i32 0, i32 6
  %107 = load ptr, ptr %106, align 8
  %108 = load ptr, ptr %3, align 8
  %109 = getelementptr inbounds %struct.H5O_pline_t, ptr %108, i32 0, i32 4
  %110 = load ptr, ptr %109, align 8
  %111 = load i64, ptr %4, align 8
  %112 = getelementptr inbounds %struct.H5Z_filter_info_t, ptr %110, i64 %111
  %113 = getelementptr inbounds %struct.H5Z_filter_info_t, ptr %112, i32 0, i32 5
  %114 = getelementptr inbounds [4 x i32], ptr %113, i64 0, i64 0
  %115 = icmp ne ptr %107, %114
  br i1 %115, label %116, label %131

116:                                              ; preds = %100
  %117 = load ptr, ptr %3, align 8
  %118 = getelementptr inbounds %struct.H5O_pline_t, ptr %117, i32 0, i32 4
  %119 = load ptr, ptr %118, align 8
  %120 = load i64, ptr %4, align 8
  %121 = getelementptr inbounds %struct.H5Z_filter_info_t, ptr %119, i64 %120
  %122 = getelementptr inbounds %struct.H5Z_filter_info_t, ptr %121, i32 0, i32 6
  %123 = load ptr, ptr %122, align 8
  %124 = call ptr @H5MM_xfree(ptr noundef %123)
  %125 = load ptr, ptr %3, align 8
  %126 = getelementptr inbounds %struct.H5O_pline_t, ptr %125, i32 0, i32 4
  %127 = load ptr, ptr %126, align 8
  %128 = load i64, ptr %4, align 8
  %129 = getelementptr inbounds %struct.H5Z_filter_info_t, ptr %127, i64 %128
  %130 = getelementptr inbounds %struct.H5Z_filter_info_t, ptr %129, i32 0, i32 6
  store ptr %124, ptr %130, align 8
  br label %131

131:                                              ; preds = %116, %100
  br label %132

132:                                              ; preds = %131
  %133 = load i64, ptr %4, align 8
  %134 = add i64 %133, 1
  store i64 %134, ptr %4, align 8
  br label %11

135:                                              ; preds = %11
  %136 = load ptr, ptr %3, align 8
  %137 = getelementptr inbounds %struct.H5O_pline_t, ptr %136, i32 0, i32 4
  %138 = load ptr, ptr %137, align 8
  %139 = call ptr @H5MM_xfree(ptr noundef %138)
  %140 = load ptr, ptr %3, align 8
  %141 = getelementptr inbounds %struct.H5O_pline_t, ptr %140, i32 0, i32 4
  store ptr %139, ptr %141, align 8
  br label %142

142:                                              ; preds = %135, %1
  %143 = load ptr, ptr %3, align 8
  %144 = getelementptr inbounds %struct.H5O_pline_t, ptr %143, i32 0, i32 2
  store i64 0, ptr %144, align 8
  %145 = load ptr, ptr %3, align 8
  %146 = getelementptr inbounds %struct.H5O_pline_t, ptr %145, i32 0, i32 3
  store i64 0, ptr %146, align 8
  %147 = load ptr, ptr %3, align 8
  %148 = getelementptr inbounds %struct.H5O_pline_t, ptr %147, i32 0, i32 1
  store i32 1, ptr %148, align 8
  ret i32 0
}