; Function Attrs: nounwind uwtable
define internal noundef i32 @H5O__pline_reset(ptr nocapture noundef %0) #0 {
  %2 = getelementptr inbounds i8, ptr %0, i64 64
  %3 = load ptr, ptr %2, align 8
  %.not = icmp eq ptr %3, null
  br i1 %.not, label %31, label %.preheader

.preheader:                                       ; preds = %1
  %4 = getelementptr inbounds i8, ptr %0, i64 56
  %5 = load i64, ptr %4, align 8
  %.not34 = icmp eq i64 %5, 0
  br i1 %.not34, label %._crit_edge, label %.lr.ph

.lr.ph:                                           ; preds = %.preheader, %25
  %.033 = phi i64 [ %26, %25 ], [ 0, %.preheader ]
  %6 = load ptr, ptr %2, align 8
  %7 = getelementptr inbounds %struct.H5Z_filter_info_t, ptr %6, i64 %.033
  %8 = getelementptr inbounds i8, ptr %7, i64 24
  %9 = load ptr, ptr %8, align 8
  %10 = getelementptr inbounds i8, ptr %7, i64 8
  %.not31 = icmp eq ptr %9, %10
  br i1 %.not31, label %15, label %11

11:                                               ; preds = %.lr.ph
  %12 = tail call ptr @H5MM_xfree(ptr noundef %9) #11
  %13 = load ptr, ptr %2, align 8
  %14 = getelementptr inbounds %struct.H5Z_filter_info_t, ptr %13, i64 %.033, i32 3
  store ptr %12, ptr %14, align 8
  %.pre = load ptr, ptr %2, align 8
  br label %15

15:                                               ; preds = %11, %.lr.ph
  %16 = phi ptr [ %.pre, %11 ], [ %6, %.lr.ph ]
  %17 = getelementptr inbounds %struct.H5Z_filter_info_t, ptr %16, i64 %.033
  %18 = getelementptr inbounds i8, ptr %17, i64 56
  %19 = load ptr, ptr %18, align 8
  %20 = getelementptr inbounds i8, ptr %17, i64 40
  %.not32 = icmp eq ptr %19, %20
  br i1 %.not32, label %25, label %21

21:                                               ; preds = %15
  %22 = tail call ptr @H5MM_xfree(ptr noundef %19) #11
  %23 = load ptr, ptr %2, align 8
  %24 = getelementptr inbounds %struct.H5Z_filter_info_t, ptr %23, i64 %.033, i32 6
  store ptr %22, ptr %24, align 8
  br label %25

25:                                               ; preds = %15, %21
  %26 = add nuw i64 %.033, 1
  %27 = load i64, ptr %4, align 8
  %28 = icmp ult i64 %26, %27
  br i1 %28, label %.lr.ph, label %._crit_edge.loopexit

._crit_edge.loopexit:                             ; preds = %25
  %.pre35 = load ptr, ptr %2, align 8
  br label %._crit_edge

._crit_edge:                                      ; preds = %._crit_edge.loopexit, %.preheader
  %29 = phi ptr [ %.pre35, %._crit_edge.loopexit ], [ %3, %.preheader ]
  %30 = tail call ptr @H5MM_xfree(ptr noundef %29) #11
  store ptr %30, ptr %2, align 8
  br label %31

31:                                               ; preds = %._crit_edge, %1
  %32 = getelementptr inbounds i8, ptr %0, i64 48
  %33 = getelementptr inbounds i8, ptr %0, i64 40
  tail call void @llvm.memset.p0.i64(ptr noundef nonnull align 8 dereferenceable(16) %32, i8 0, i64 16, i1 false)
  store i32 1, ptr %33, align 8
  ret i32 0
}